target datalayout = "e-m:e-p270:32:32-p271:32:32-p272:64:64-i64:64-i128:128-f80:128-n8:16:32:64-S128"
target triple = "x86_64-pc-linux-gnu"

%union.pthread_mutex_t = type { %struct.__pthread_mutex_s }
%struct.__pthread_mutex_s = type { i32, i32, i32, i32, i32, i16, i16, %struct.__pthread_internal_list }
%struct.__pthread_internal_list = type { ptr, ptr }
%struct.tMPI_Thread = type { i64, i32 }
%struct.tMPI_Thread_starter = type { ptr, ptr, ptr, %union.pthread_mutex_t }

; Function Attrs: mustprogress uwtable
define noundef i32 @_Z18tMPI_Thread_createPP11tMPI_ThreadPFPvS2_ES2_(ptr noundef %0, ptr noundef %1, ptr noundef %2) #2 {
  %4 = alloca i32, align 4
  %5 = alloca ptr, align 8
  %6 = alloca ptr, align 8
  %7 = alloca ptr, align 8
  %8 = alloca i32, align 4
  %9 = alloca ptr, align 8
  store ptr %0, ptr %5, align 8
  store ptr %1, ptr %6, align 8
  store ptr %2, ptr %7, align 8
  %10 = load ptr, ptr %5, align 8
  %11 = icmp eq ptr %10, null
  br i1 %11, label %12, label %13

12:                                               ; preds = %3
  store i32 22, ptr %4, align 4
  br label %70

13:                                               ; preds = %3
  %14 = call noundef i32 @_ZL20tMPI_Init_thread_idsv()
  %15 = call noalias ptr @malloc(i64 noundef 16) #9
  %16 = load ptr, ptr %5, align 8
  store ptr %15, ptr %16, align 8
  %17 = load ptr, ptr %5, align 8
  %18 = load ptr, ptr %17, align 8
  %19 = icmp eq ptr %18, null
  br i1 %19, label %20, label %21

20:                                               ; preds = %13
  store i32 12, ptr %4, align 4
  br label %70

21:                                               ; preds = %13
  %22 = load ptr, ptr %5, align 8
  %23 = load ptr, ptr %22, align 8
  %24 = getelementptr inbounds %struct.tMPI_Thread, ptr %23, i32 0, i32 1
  store i32 1, ptr %24, align 8
  %25 = call noalias ptr @malloc(i64 noundef 64) #9
  store ptr %25, ptr %9, align 8
  %26 = load ptr, ptr %9, align 8
  %27 = icmp eq ptr %26, null
  br i1 %27, label %28, label %29

28:                                               ; preds = %21
  store i32 12, ptr %4, align 4
  br label %70

29:                                               ; preds = %21
  %30 = load ptr, ptr %5, align 8
  %31 = load ptr, ptr %30, align 8
  %32 = load ptr, ptr %9, align 8
  %33 = getelementptr inbounds %struct.tMPI_Thread_starter, ptr %32, i32 0, i32 0
  store ptr %31, ptr %33, align 8
  %34 = load ptr, ptr %6, align 8
  %35 = load ptr, ptr %9, align 8
  %36 = getelementptr inbounds %struct.tMPI_Thread_starter, ptr %35, i32 0, i32 1
  store ptr %34, ptr %36, align 8
  %37 = load ptr, ptr %7, align 8
  %38 = load ptr, ptr %9, align 8
  %39 = getelementptr inbounds %struct.tMPI_Thread_starter, ptr %38, i32 0, i32 2
  store ptr %37, ptr %39, align 8
  %40 = load ptr, ptr %9, align 8
  %41 = getelementptr inbounds %struct.tMPI_Thread_starter, ptr %40, i32 0, i32 3
  %42 = call i32 @pthread_mutex_init(ptr noundef %41, ptr noundef null) #8
  store i32 %42, ptr %8, align 4
  %43 = load i32, ptr %8, align 4
  %44 = icmp ne i32 %43, 0
  br i1 %44, label %45, label %47

45:                                               ; preds = %29
  %46 = load i32, ptr %8, align 4
  store i32 %46, ptr %4, align 4
  br label %70

47:                                               ; preds = %29
  %48 = load ptr, ptr %9, align 8
  %49 = getelementptr inbounds %struct.tMPI_Thread_starter, ptr %48, i32 0, i32 3
  %50 = call i32 @pthread_mutex_lock(ptr noundef %49) #8
  store i32 %50, ptr %8, align 4
  %51 = load i32, ptr %8, align 4
  %52 = icmp ne i32 %51, 0
  br i1 %52, label %53, label %55

53:                                               ; preds = %47
  %54 = load i32, ptr %8, align 4
  store i32 %54, ptr %4, align 4
  br label %70

55:                                               ; preds = %47
  %56 = load ptr, ptr %5, align 8
  %57 = load ptr, ptr %56, align 8
  %58 = getelementptr inbounds %struct.tMPI_Thread, ptr %57, i32 0, i32 0
  %59 = load ptr, ptr %9, align 8
  %60 = call i32 @pthread_create(ptr noundef %58, ptr noundef null, ptr noundef @_ZL17tMPI_Thread_startPv, ptr noundef %59) #8
  store i32 %60, ptr %8, align 4
  %61 = load i32, ptr %8, align 4
  %62 = icmp ne i32 %61, 0
  br i1 %62, label %63, label %65

63:                                               ; preds = %55
  %64 = load i32, ptr %8, align 4
  store i32 %64, ptr %4, align 4
  br label %70

65:                                               ; preds = %55
  %66 = load ptr, ptr %9, align 8
  %67 = getelementptr inbounds %struct.tMPI_Thread_starter, ptr %66, i32 0, i32 3
  %68 = call i32 @pthread_mutex_unlock(ptr noundef %67) #8
  store i32 %68, ptr %8, align 4
  %69 = load i32, ptr %8, align 4
  store i32 %69, ptr %4, align 4
  br label %70

70:                                               ; preds = %65, %63, %53, %45, %28, %20, %12
  %71 = load i32, ptr %4, align 4
  ret i32 %71
}