; Function Attrs: mustprogress nounwind uwtable
define noundef i32 @_Z18tMPI_Thread_createPP11tMPI_ThreadPFPvS2_ES2_(ptr noundef %0, ptr noundef %1, ptr noundef %2) local_unnamed_addr #1 {
  %4 = icmp eq ptr %0, null
  br i1 %4, label %25, label %5

5:                                                ; preds = %3
  %6 = tail call fastcc noundef i32 @_ZL20tMPI_Init_thread_idsv()
  %7 = tail call noalias dereferenceable_or_null(16) ptr @malloc(i64 noundef 16) #14
  store ptr %7, ptr %0, align 8
  %8 = icmp eq ptr %7, null
  br i1 %8, label %25, label %9

9:                                                ; preds = %5
  %10 = getelementptr inbounds i8, ptr %7, i64 8
  store i32 1, ptr %10, align 8
  %11 = tail call noalias dereferenceable_or_null(64) ptr @malloc(i64 noundef 64) #14
  %12 = icmp eq ptr %11, null
  br i1 %12, label %25, label %13

13:                                               ; preds = %9
  store ptr %7, ptr %11, align 8
  %14 = getelementptr inbounds i8, ptr %11, i64 8
  store ptr %1, ptr %14, align 8
  %15 = getelementptr inbounds i8, ptr %11, i64 16
  store ptr %2, ptr %15, align 8
  %16 = getelementptr inbounds i8, ptr %11, i64 24
  %17 = tail call i32 @pthread_mutex_init(ptr noundef nonnull %16, ptr noundef null) #13
  %.not = icmp eq i32 %17, 0
  br i1 %.not, label %18, label %25

18:                                               ; preds = %13
  %19 = tail call i32 @pthread_mutex_lock(ptr noundef nonnull %16) #13
  %.not29 = icmp eq i32 %19, 0
  br i1 %.not29, label %20, label %25

20:                                               ; preds = %18
  %21 = load ptr, ptr %0, align 8
  %22 = tail call i32 @pthread_create(ptr noundef %21, ptr noundef null, ptr noundef nonnull @_ZL17tMPI_Thread_startPv, ptr noundef nonnull %11) #13
  %.not30 = icmp eq i32 %22, 0
  br i1 %.not30, label %23, label %25

23:                                               ; preds = %20
  %24 = tail call i32 @pthread_mutex_unlock(ptr noundef nonnull %16) #13
  br label %25

25:                                               ; preds = %20, %18, %13, %9, %5, %3, %23
  %.0 = phi i32 [ %24, %23 ], [ 22, %3 ], [ 12, %5 ], [ 12, %9 ], [ %17, %13 ], [ %19, %18 ], [ %22, %20 ]
  ret i32 %.0
}